; ModuleID = '41/130.cpp'
source_filename = "41/130.cpp"
target datalayout = "e-m:e-p270:32:32-p271:32:32-p272:64:64-i64:64-f80:128-n8:16:32:64-S128"
target triple = "x86_64-pc-linux-gnu"

%"class.std::ios_base::Init" = type { i8 }
%"class.std::basic_ostream" = type { i32 (...)**, %"class.std::basic_ios" }
%"class.std::basic_ios" = type { %"class.std::ios_base", %"class.std::basic_ostream"*, i8, i8, %"class.std::basic_streambuf"*, %"class.std::ctype"*, %"class.std::num_put"*, %"class.std::num_get"* }
%"class.std::ios_base" = type { i32 (...)**, i64, i64, i32, i32, i32, %"struct.std::ios_base::_Callback_list"*, %"struct.std::ios_base::_Words", [8 x %"struct.std::ios_base::_Words"], i32, %"struct.std::ios_base::_Words"*, %"class.std::locale" }
%"struct.std::ios_base::_Callback_list" = type { %"struct.std::ios_base::_Callback_list"*, void (i32, %"class.std::ios_base"*, i32)*, i32, i32 }
%"struct.std::ios_base::_Words" = type { i8*, i64 }
%"class.std::locale" = type { %"class.std::locale::_Impl"* }
%"class.std::locale::_Impl" = type { i32, %"class.std::locale::facet"**, i64, %"class.std::locale::facet"**, i8** }
%"class.std::locale::facet" = type <{ i32 (...)**, i32, [4 x i8] }>
%"class.std::basic_streambuf" = type { i32 (...)**, i8*, i8*, i8*, i8*, i8*, i8*, %"class.std::locale" }
%"class.std::ctype" = type <{ %"class.std::locale::facet.base", [4 x i8], %struct.__locale_struct*, i8, [7 x i8], i32*, i32*, i16*, i8, [256 x i8], [256 x i8], i8, [6 x i8] }>
%"class.std::locale::facet.base" = type <{ i32 (...)**, i32 }>
%struct.__locale_struct = type { [13 x %struct.__locale_data*], i16*, i32*, i32*, [13 x i8*] }
%struct.__locale_data = type opaque
%"class.std::num_put" = type { %"class.std::locale::facet.base", [4 x i8] }
%"class.std::num_get" = type { %"class.std::locale::facet.base", [4 x i8] }

@_ZStL8__ioinit = internal global %"class.std::ios_base::Init" zeroinitializer, align 1
@__dso_handle = external hidden global i8
@_ZSt4cout = external dso_local global %"class.std::basic_ostream", align 8
@.str = private unnamed_addr constant [2 x i8] c" \00", align 1
@llvm.global_ctors = appending global [1 x { i32, void ()*, i8* }] [{ i32, void ()*, i8* } { i32 65535, void ()* @_GLOBAL__sub_I_130.cpp, i8* null }]

; Function Attrs: noinline uwtable
define internal void @__cxx_global_var_init() #0 section ".text.startup" {
  call void @_ZNSt8ios_base4InitC1Ev(%"class.std::ios_base::Init"* @_ZStL8__ioinit)
  %1 = call i32 @__cxa_atexit(void (i8*)* bitcast (void (%"class.std::ios_base::Init"*)* @_ZNSt8ios_base4InitD1Ev to void (i8*)*), i8* getelementptr inbounds (%"class.std::ios_base::Init", %"class.std::ios_base::Init"* @_ZStL8__ioinit, i32 0, i32 0), i8* @__dso_handle) #3
  ret void
}

declare dso_local void @_ZNSt8ios_base4InitC1Ev(%"class.std::ios_base::Init"*) unnamed_addr #1

; Function Attrs: nounwind
declare dso_local void @_ZNSt8ios_base4InitD1Ev(%"class.std::ios_base::Init"*) unnamed_addr #2

; Function Attrs: nounwind
declare dso_local i32 @__cxa_atexit(void (i8*)*, i8*, i8*) #3

; Function Attrs: noinline norecurse uwtable
define dso_local i32 @main() #4 {
  %1 = alloca i32, align 4
  %2 = alloca [5 x i32], align 16
  %3 = alloca i32, align 4
  %4 = alloca i32, align 4
  %5 = alloca i32, align 4
  %6 = alloca i32, align 4
  %7 = alloca i32, align 4
  %8 = alloca i32, align 4
  %9 = alloca i32, align 4
  store i32 0, i32* %1, align 4
  store i32 0, i32* %9, align 4
  store i32 1, i32* %3, align 4
  br label %10

10:                                               ; preds = %146, %0
  %11 = load i32, i32* %3, align 4
  %12 = icmp sle i32 %11, 5
  br i1 %12, label %13, label %149

13:                                               ; preds = %10
  %14 = load i32, i32* %3, align 4
  %15 = getelementptr inbounds [5 x i32], [5 x i32]* %2, i64 0, i64 0
  store i32 %14, i32* %15, align 16
  store i32 1, i32* %4, align 4
  br label %16

16:                                               ; preds = %142, %13
  %17 = load i32, i32* %4, align 4
  %18 = icmp sle i32 %17, 5
  br i1 %18, label %19, label %145

19:                                               ; preds = %16
  %20 = load i32, i32* %4, align 4
  %21 = getelementptr inbounds [5 x i32], [5 x i32]* %2, i64 0, i64 1
  store i32 %20, i32* %21, align 4
  store i32 1, i32* %5, align 4
  br label %22

22:                                               ; preds = %138, %19
  %23 = load i32, i32* %5, align 4
  %24 = icmp sle i32 %23, 5
  br i1 %24, label %25, label %141

25:                                               ; preds = %22
  %26 = load i32, i32* %5, align 4
  %27 = getelementptr inbounds [5 x i32], [5 x i32]* %2, i64 0, i64 2
  store i32 %26, i32* %27, align 8
  store i32 1, i32* %6, align 4
  br label %28

28:                                               ; preds = %134, %25
  %29 = load i32, i32* %6, align 4
  %30 = icmp sle i32 %29, 5
  br i1 %30, label %31, label %137

31:                                               ; preds = %28
  %32 = load i32, i32* %6, align 4
  %33 = getelementptr inbounds [5 x i32], [5 x i32]* %2, i64 0, i64 3
  store i32 %32, i32* %33, align 4
  store i32 1, i32* %7, align 4
  br label %34

34:                                               ; preds = %130, %31
  %35 = load i32, i32* %7, align 4
  %36 = icmp sle i32 %35, 5
  br i1 %36, label %37, label %133

37:                                               ; preds = %34
  %38 = load i32, i32* %7, align 4
  %39 = getelementptr inbounds [5 x i32], [5 x i32]* %2, i64 0, i64 4
  store i32 %38, i32* %39, align 16
  %40 = load i32, i32* %3, align 4
  %41 = load i32, i32* %4, align 4
  %42 = icmp ne i32 %40, %41
  br i1 %42, label %43, label %129

43:                                               ; preds = %37
  %44 = load i32, i32* %3, align 4
  %45 = load i32, i32* %5, align 4
  %46 = icmp ne i32 %44, %45
  br i1 %46, label %47, label %129

47:                                               ; preds = %43
  %48 = load i32, i32* %3, align 4
  %49 = load i32, i32* %6, align 4
  %50 = icmp ne i32 %48, %49
  br i1 %50, label %51, label %129

51:                                               ; preds = %47
  %52 = load i32, i32* %3, align 4
  %53 = load i32, i32* %7, align 4
  %54 = icmp ne i32 %52, %53
  br i1 %54, label %55, label %129

55:                                               ; preds = %51
  %56 = load i32, i32* %4, align 4
  %57 = load i32, i32* %5, align 4
  %58 = icmp ne i32 %56, %57
  br i1 %58, label %59, label %129

59:                                               ; preds = %55
  %60 = load i32, i32* %4, align 4
  %61 = load i32, i32* %6, align 4
  %62 = icmp ne i32 %60, %61
  br i1 %62, label %63, label %129

63:                                               ; preds = %59
  %64 = load i32, i32* %4, align 4
  %65 = load i32, i32* %7, align 4
  %66 = icmp ne i32 %64, %65
  br i1 %66, label %67, label %129

67:                                               ; preds = %63
  %68 = load i32, i32* %5, align 4
  %69 = load i32, i32* %6, align 4
  %70 = icmp ne i32 %68, %69
  br i1 %70, label %71, label %129

71:                                               ; preds = %67
  %72 = load i32, i32* %5, align 4
  %73 = load i32, i32* %7, align 4
  %74 = icmp ne i32 %72, %73
  br i1 %74, label %75, label %129

75:                                               ; preds = %71
  %76 = load i32, i32* %6, align 4
  %77 = load i32, i32* %7, align 4
  %78 = icmp ne i32 %76, %77
  br i1 %78, label %79, label %129

79:                                               ; preds = %75
  %80 = getelementptr inbounds [5 x i32], [5 x i32]* %2, i64 0, i64 4
  %81 = load i32, i32* %80, align 16
  %82 = icmp eq i32 %81, 1
  %83 = zext i1 %82 to i32
  %84 = getelementptr inbounds [5 x i32], [5 x i32]* %2, i64 0, i64 1
  %85 = load i32, i32* %84, align 4
  %86 = icmp eq i32 %85, 2
  %87 = zext i1 %86 to i32
  %88 = add nsw i32 %83, %87
  %89 = getelementptr inbounds [5 x i32], [5 x i32]* %2, i64 0, i64 0
  %90 = load i32, i32* %89, align 16
  %91 = icmp eq i32 %90, 5
  %92 = zext i1 %91 to i32
  %93 = add nsw i32 %88, %92
  %94 = getelementptr inbounds [5 x i32], [5 x i32]* %2, i64 0, i64 2
  %95 = load i32, i32* %94, align 8
  %96 = icmp ne i32 %95, 1
  %97 = zext i1 %96 to i32
  %98 = add nsw i32 %93, %97
  %99 = getelementptr inbounds [5 x i32], [5 x i32]* %2, i64 0, i64 3
  %100 = load i32, i32* %99, align 4
  %101 = icmp eq i32 %100, 1
  %102 = zext i1 %101 to i32
  %103 = add nsw i32 %98, %102
  %104 = icmp eq i32 %103, 2
  br i1 %104, label %105, label %129

105:                                              ; preds = %79
  %106 = load i32, i32* %9, align 4
  %107 = add nsw i32 %106, 1
  store i32 %107, i32* %9, align 4
  %108 = load i32, i32* %9, align 4
  %109 = icmp eq i32 %108, 41
  br i1 %109, label %110, label %128

110:                                              ; preds = %105
  store i32 0, i32* %8, align 4
  br label %111

111:                                              ; preds = %121, %110
  %112 = load i32, i32* %8, align 4
  %113 = icmp slt i32 %112, 4
  br i1 %113, label %114, label %124

114:                                              ; preds = %111
  %115 = load i32, i32* %8, align 4
  %116 = sext i32 %115 to i64
  %117 = getelementptr inbounds [5 x i32], [5 x i32]* %2, i64 0, i64 %116
  %118 = load i32, i32* %117, align 4
  %119 = call dereferenceable(272) %"class.std::basic_ostream"* @_ZNSolsEi(%"class.std::basic_ostream"* @_ZSt4cout, i32 %118)
  %120 = call dereferenceable(272) %"class.std::basic_ostream"* @_ZStlsISt11char_traitsIcEERSt13basic_ostreamIcT_ES5_PKc(%"class.std::basic_ostream"* dereferenceable(272) %119, i8* getelementptr inbounds ([2 x i8], [2 x i8]* @.str, i64 0, i64 0))
  br label %121

121:                                              ; preds = %114
  %122 = load i32, i32* %8, align 4
  %123 = add nsw i32 %122, 1
  store i32 %123, i32* %8, align 4
  br label %111

124:                                              ; preds = %111
  %125 = getelementptr inbounds [5 x i32], [5 x i32]* %2, i64 0, i64 4
  %126 = load i32, i32* %125, align 16
  %127 = call dereferenceable(272) %"class.std::basic_ostream"* @_ZNSolsEi(%"class.std::basic_ostream"* @_ZSt4cout, i32 %126)
  br label %133

128:                                              ; preds = %105
  br label %129

129:                                              ; preds = %128, %79, %75, %71, %67, %63, %59, %55, %51, %47, %43, %37
  br label %130

130:                                              ; preds = %129
  %131 = load i32, i32* %7, align 4
  %132 = add nsw i32 %131, 1
  store i32 %132, i32* %7, align 4
  br label %34

133:                                              ; preds = %124, %34
  br label %134

134:                                              ; preds = %133
  %135 = load i32, i32* %6, align 4
  %136 = add nsw i32 %135, 1
  store i32 %136, i32* %6, align 4
  br label %28

137:                                              ; preds = %28
  br label %138

138:                                              ; preds = %137
  %139 = load i32, i32* %5, align 4
  %140 = add nsw i32 %139, 1
  store i32 %140, i32* %5, align 4
  br label %22

141:                                              ; preds = %22
  br label %142

142:                                              ; preds = %141
  %143 = load i32, i32* %4, align 4
  %144 = add nsw i32 %143, 1
  store i32 %144, i32* %4, align 4
  br label %16

145:                                              ; preds = %16
  br label %146

146:                                              ; preds = %145
  %147 = load i32, i32* %3, align 4
  %148 = add nsw i32 %147, 1
  store i32 %148, i32* %3, align 4
  br label %10

149:                                              ; preds = %10
  ret i32 0
}

declare dso_local dereferenceable(272) %"class.std::basic_ostream"* @_ZStlsISt11char_traitsIcEERSt13basic_ostreamIcT_ES5_PKc(%"class.std::basic_ostream"* dereferenceable(272), i8*) #1

declare dso_local dereferenceable(272) %"class.std::basic_ostream"* @_ZNSolsEi(%"class.std::basic_ostream"*, i32) #1

; Function Attrs: noinline uwtable
define internal void @_GLOBAL__sub_I_130.cpp() #0 section ".text.startup" {
  call void @__cxx_global_var_init()
  ret void
}


!llvm.module.flags = !{!0}
!llvm.ident = !{!1}

!0 = !{i32 1, !"wchar_size", i32 4}
!1 = !{!"clang version 10.0.0-4ubuntu1 "}
